target datalayout = "e-m:e-p270:32:32-p271:32:32-p272:64:64-i64:64-i128:128-f80:128-n8:16:32:64-S128"
target triple = "x86_64-pc-linux-gnu"

@.str.42 = private unnamed_addr constant [41 x i8] c"max must be greater than or equal to min\00", align 1

; Function Attrs: mustprogress uwtable
define internal noundef i32 @_ZL10math_clampP9lua_State(ptr noundef %0) #2 {
  %2 = alloca ptr, align 8
  %3 = alloca double, align 8
  %4 = alloca double, align 8
  %5 = alloca double, align 8
  %6 = alloca double, align 8
  store ptr %0, ptr %2, align 8, !tbaa !20
  call void @llvm.lifetime.start.p0(i64 8, ptr %3) #11
  %7 = load ptr, ptr %2, align 8, !tbaa !20
  %8 = call noundef double @_Z16luaL_checknumberP9lua_Statei(ptr noundef %7, i32 noundef 1)
  store double %8, ptr %3, align 8, !tbaa !37
  call void @llvm.lifetime.start.p0(i64 8, ptr %4) #11
  %9 = load ptr, ptr %2, align 8, !tbaa !20
  %10 = call noundef double @_Z16luaL_checknumberP9lua_Statei(ptr noundef %9, i32 noundef 2)
  store double %10, ptr %4, align 8, !tbaa !37
  call void @llvm.lifetime.start.p0(i64 8, ptr %5) #11
  %11 = load ptr, ptr %2, align 8, !tbaa !20
  %12 = call noundef double @_Z16luaL_checknumberP9lua_Statei(ptr noundef %11, i32 noundef 3)
  store double %12, ptr %5, align 8, !tbaa !37
  %13 = load double, ptr %4, align 8, !tbaa !37
  %14 = load double, ptr %5, align 8, !tbaa !37
  %15 = fcmp ole double %13, %14
  br i1 %15, label %16, label %17

16:                                               ; preds = %1
  br label %20

17:                                               ; preds = %1
  %18 = load ptr, ptr %2, align 8, !tbaa !20
  call void @_Z14luaL_argerrorLP9lua_StateiPKc(ptr noundef %18, i32 noundef 3, ptr noundef @.str.42) #13
  unreachable

19:                                               ; No predecessors!
  br label %20

20:                                               ; preds = %19, %16
  call void @llvm.lifetime.start.p0(i64 8, ptr %6) #11
  %21 = load double, ptr %3, align 8, !tbaa !37
  %22 = load double, ptr %4, align 8, !tbaa !37
  %23 = fcmp olt double %21, %22
  br i1 %23, label %24, label %26

24:                                               ; preds = %20
  %25 = load double, ptr %4, align 8, !tbaa !37
  br label %28

26:                                               ; preds = %20
  %27 = load double, ptr %3, align 8, !tbaa !37
  br label %28

28:                                               ; preds = %26, %24
  %29 = phi double [ %25, %24 ], [ %27, %26 ]
  store double %29, ptr %6, align 8, !tbaa !37
  %30 = load double, ptr %6, align 8, !tbaa !37
  %31 = load double, ptr %5, align 8, !tbaa !37
  %32 = fcmp ogt double %30, %31
  br i1 %32, label %33, label %35

33:                                               ; preds = %28
  %34 = load double, ptr %5, align 8, !tbaa !37
  br label %37

35:                                               ; preds = %28
  %36 = load double, ptr %6, align 8, !tbaa !37
  br label %37

37:                                               ; preds = %35, %33
  %38 = phi double [ %34, %33 ], [ %36, %35 ]
  store double %38, ptr %6, align 8, !tbaa !37
  %39 = load ptr, ptr %2, align 8, !tbaa !20
  %40 = load double, ptr %6, align 8, !tbaa !37
  call void @_Z14lua_pushnumberP9lua_Stated(ptr noundef %39, double noundef %40)
  call void @llvm.lifetime.end.p0(i64 8, ptr %6) #11
  call void @llvm.lifetime.end.p0(i64 8, ptr %5) #11
  call void @llvm.lifetime.end.p0(i64 8, ptr %4) #11
  call void @llvm.lifetime.end.p0(i64 8, ptr %3) #11
  ret i32 1
}