; Function Attrs: mustprogress uwtable
define internal noundef i32 @_ZL10math_clampP9lua_State(ptr noundef %0) #0 {
  %2 = tail call noundef double @_Z16luaL_checknumberP9lua_Statei(ptr noundef %0, i32 noundef 1)
  %3 = tail call noundef double @_Z16luaL_checknumberP9lua_Statei(ptr noundef %0, i32 noundef 2)
  %4 = tail call noundef double @_Z16luaL_checknumberP9lua_Statei(ptr noundef %0, i32 noundef 3)
  %5 = fcmp ugt double %3, %4
  br i1 %5, label %6, label %7

6:                                                ; preds = %1
  tail call void @_Z14luaL_argerrorLP9lua_StateiPKc(ptr noundef %0, i32 noundef 3, ptr noundef nonnull @.str.42) #12
  unreachable

7:                                                ; preds = %1
  %8 = fcmp olt double %2, %3
  %9 = select i1 %8, double %3, double %2
  %10 = fcmp ogt double %9, %4
  %11 = select i1 %10, double %4, double %9
  tail call void @_Z14lua_pushnumberP9lua_Stated(ptr noundef %0, double noundef %11)
  ret i32 1
}